target datalayout = "e-m:e-p270:32:32-p271:32:32-p272:64:64-i64:64-i128:128-f80:128-n8:16:32:64-S128"
target triple = "x86_64-pc-linux-gnu"

%struct.H5L_trav_rmbi_t = type { i32, i32, i64 }

@.str = private unnamed_addr constant [100 x i8] c"generated/home/dtcxzyw/WorkSpace/Projects/compilers/llvm-opt-benchmark/bench/hdf5/hdf5/src/H5Lint.c\00", align 1
@H5E_LINK_g = external global i64, align 8
@__func__.H5L__delete_by_idx = private unnamed_addr constant [19 x i8] c"H5L__delete_by_idx\00", align 1
@H5E_CANTDELETE_g = external global i64, align 8
@.str.14 = private unnamed_addr constant [19 x i8] c"link doesn't exist\00", align 1

; Function Attrs: nounwind uwtable
define i32 @H5L__delete_by_idx(ptr noundef %0, ptr noundef %1, i32 noundef %2, i32 noundef %3, i64 noundef %4) #0 {
  %6 = alloca ptr, align 8
  %7 = alloca ptr, align 8
  %8 = alloca i32, align 4
  %9 = alloca i32, align 4
  %10 = alloca i64, align 8
  %11 = alloca %struct.H5L_trav_rmbi_t, align 8
  %12 = alloca i32, align 4
  %13 = alloca i8, align 1
  store ptr %0, ptr %6, align 8
  store ptr %1, ptr %7, align 8
  store i32 %2, ptr %8, align 4
  store i32 %3, ptr %9, align 4
  store i64 %4, ptr %10, align 8
  store i32 0, ptr %12, align 4
  store i8 0, ptr %13, align 1
  %14 = load i32, ptr %8, align 4
  %15 = getelementptr inbounds %struct.H5L_trav_rmbi_t, ptr %11, i32 0, i32 0
  store i32 %14, ptr %15, align 8
  %16 = load i32, ptr %9, align 4
  %17 = getelementptr inbounds %struct.H5L_trav_rmbi_t, ptr %11, i32 0, i32 1
  store i32 %16, ptr %17, align 4
  %18 = load i64, ptr %10, align 8
  %19 = getelementptr inbounds %struct.H5L_trav_rmbi_t, ptr %11, i32 0, i32 2
  store i64 %18, ptr %19, align 8
  %20 = load ptr, ptr %6, align 8
  %21 = load ptr, ptr %7, align 8
  %22 = call i32 @H5G_traverse(ptr noundef %20, ptr noundef %21, i32 noundef 7, ptr noundef @H5L__delete_by_idx_cb, ptr noundef %11)
  %23 = icmp slt i32 %22, 0
  br i1 %23, label %24, label %39

24:                                               ; preds = %5
  br label %25

25:                                               ; preds = %24
  br label %26

26:                                               ; preds = %25
  br label %27

27:                                               ; preds = %26
  %28 = load i64, ptr @H5E_LINK_g, align 8
  %29 = load i64, ptr @H5E_CANTDELETE_g, align 8
  %30 = call i32 (ptr, ptr, i32, i64, i64, ptr, ...) @H5E_printf_stack(ptr noundef @.str, ptr noundef @__func__.H5L__delete_by_idx, i32 noundef 1271, i64 noundef %28, i64 noundef %29, ptr noundef @.str.14)
  br label %31

31:                                               ; preds = %27
  store i8 1, ptr %13, align 1
  %32 = load i8, ptr %13, align 1
  %33 = trunc i8 %32 to i1
  %34 = zext i1 %33 to i8
  store i8 %34, ptr %13, align 1
  br label %35

35:                                               ; preds = %31
  br label %36

36:                                               ; preds = %35
  store i32 -1, ptr %12, align 4
  br label %40

37:                                               ; No predecessors!
  br label %38

38:                                               ; preds = %37
  br label %39

39:                                               ; preds = %38, %5
  br label %40

40:                                               ; preds = %39, %36
  %41 = load i32, ptr %12, align 4
  ret i32 %41
}