; Function Attrs: nounwind uwtable
define range(i32 -1, 1) i32 @H5L__delete_by_idx(ptr noundef %0, ptr noundef %1, i32 noundef %2, i32 noundef %3, i64 noundef %4) local_unnamed_addr #0 {
  %6 = alloca %struct.H5L_trav_rmbi_t, align 8
  store i32 %2, ptr %6, align 8
  %7 = getelementptr inbounds i8, ptr %6, i64 4
  store i32 %3, ptr %7, align 4
  %8 = getelementptr inbounds i8, ptr %6, i64 8
  store i64 %4, ptr %8, align 8
  %9 = call i32 @H5G_traverse(ptr noundef %0, ptr noundef %1, i32 noundef 7, ptr noundef nonnull @H5L__delete_by_idx_cb, ptr noundef nonnull %6) #10
  %10 = icmp slt i32 %9, 0
  br i1 %10, label %11, label %15

11:                                               ; preds = %5
  %12 = load i64, ptr @H5E_LINK_g, align 8
  %13 = load i64, ptr @H5E_CANTDELETE_g, align 8
  %14 = call i32 (ptr, ptr, i32, i64, i64, ptr, ...) @H5E_printf_stack(ptr noundef nonnull @.str, ptr noundef nonnull @__func__.H5L__delete_by_idx, i32 noundef 1271, i64 noundef %12, i64 noundef %13, ptr noundef nonnull @.str.14) #10
  br label %15

15:                                               ; preds = %5, %11
  %.0 = phi i32 [ -1, %11 ], [ 0, %5 ]
  ret i32 %.0
}